; Function Attrs: mustprogress uwtable
define hidden void @_ZNK4cvc58internal6theory7strings16InferenceManager16addToExplanationENS0_12NodeTemplateILb1EEERSt6vectorIS5_SaIS5_EE(ptr noundef nonnull readnone align 8 captures(none) dereferenceable(432) %0, ptr noundef %1, ptr noundef nonnull align 8 dereferenceable(24) %2) local_unnamed_addr #3 align 2 personality ptr @__gxx_personality_v0 {
  %4 = load ptr, ptr %1, align 8, !tbaa !88
  %5 = load atomic i8, ptr @_ZGVZN4cvc58internal4expr9NodeValue4nullEvE6s_null acquire, align 8
  %6 = icmp eq i8 %5, 0
  br i1 %6, label %7, label %_ZNK4cvc58internal12NodeTemplateILb1EE6isNullEv.exit, !prof !86

7:                                                ; preds = %3
  %8 = tail call i32 @__cxa_guard_acquire(ptr nonnull @_ZGVZN4cvc58internal4expr9NodeValue4nullEvE6s_null) #21
  %.not.i.i = icmp eq i32 %8, 0
  br i1 %.not.i.i, label %_ZNK4cvc58internal12NodeTemplateILb1EE6isNullEv.exit, label %9

9:                                                ; preds = %7
  %10 = invoke noalias noundef nonnull dereferenceable(24) ptr @_Znwm(i64 noundef 24) #23
          to label %11 unwind label %13

11:                                               ; preds = %9
  store i64 1152920405095219200, ptr %10, align 8
  %12 = getelementptr inbounds nuw i8, ptr %10, i64 8
  tail call void @llvm.memset.p0.i64(ptr noundef nonnull align 8 dereferenceable(16) %12, i8 0, i64 16, i1 false)
  store ptr %10, ptr @_ZZN4cvc58internal4expr9NodeValue4nullEvE6s_null, align 8, !tbaa !87
  tail call void @__cxa_guard_release(ptr nonnull @_ZGVZN4cvc58internal4expr9NodeValue4nullEvE6s_null) #21
  br label %_ZNK4cvc58internal12NodeTemplateILb1EE6isNullEv.exit

13:                                               ; preds = %9
  %14 = landingpad { ptr, i32 }
          cleanup
  tail call void @__cxa_guard_abort(ptr nonnull @_ZGVZN4cvc58internal4expr9NodeValue4nullEvE6s_null) #21
  resume { ptr, i32 } %14

_ZNK4cvc58internal12NodeTemplateILb1EE6isNullEv.exit: ; preds = %3, %7, %11
  %15 = load ptr, ptr @_ZZN4cvc58internal4expr9NodeValue4nullEvE6s_null, align 8, !tbaa !87
  %16 = icmp eq ptr %4, %15
  br i1 %16, label %_ZNSt6vectorIN4cvc58internal12NodeTemplateILb1EEESaIS3_EE9push_backERKS3_.exit, label %17

17:                                               ; preds = %_ZNK4cvc58internal12NodeTemplateILb1EE6isNullEv.exit
  %18 = getelementptr inbounds nuw i8, ptr %2, i64 8
  %19 = load ptr, ptr %18, align 8, !tbaa !145
  %20 = getelementptr inbounds nuw i8, ptr %2, i64 16
  %21 = load ptr, ptr %20, align 8, !tbaa !147
  %.not.i = icmp eq ptr %19, %21
  br i1 %.not.i, label %40, label %22

22:                                               ; preds = %17
  %23 = load ptr, ptr %1, align 8, !tbaa !88
  store ptr %23, ptr %19, align 8, !tbaa !88
  %24 = load i64, ptr %23, align 8
  %25 = lshr i64 %24, 40
  %26 = trunc nuw nsw i64 %25 to i32
  %27 = and i32 %26, 1048575
  %28 = icmp samesign ult i32 %27, 1048574
  br i1 %28, label %29, label %34, !prof !90

29:                                               ; preds = %22
  %30 = add i64 %24, 1099511627776
  %31 = and i64 %30, 1152920405095219200
  %32 = and i64 %24, -1152920405095219201
  %33 = or disjoint i64 %31, %32
  store i64 %33, ptr %23, align 8
  br label %_ZNSt16allocator_traitsISaIN4cvc58internal12NodeTemplateILb1EEEEE9constructIS3_JRKS3_EEEvRS4_PT_DpOT0_.exit.i

34:                                               ; preds = %22
  %35 = icmp eq i32 %27, 1048574
  br i1 %35, label %36, label %_ZNSt16allocator_traitsISaIN4cvc58internal12NodeTemplateILb1EEEEE9constructIS3_JRKS3_EEEvRS4_PT_DpOT0_.exit.i, !prof !89

36:                                               ; preds = %34
  %37 = or i64 %24, 1152920405095219200
  store i64 %37, ptr %23, align 8
  tail call void @_ZN4cvc58internal4expr9NodeValue20markRefCountMaxedOutEv(ptr noundef nonnull align 8 dereferenceable(24) %23)
  br label %_ZNSt16allocator_traitsISaIN4cvc58internal12NodeTemplateILb1EEEEE9constructIS3_JRKS3_EEEvRS4_PT_DpOT0_.exit.i

_ZNSt16allocator_traitsISaIN4cvc58internal12NodeTemplateILb1EEEEE9constructIS3_JRKS3_EEEvRS4_PT_DpOT0_.exit.i: ; preds = %36, %34, %29
  %38 = load ptr, ptr %18, align 8, !tbaa !145
  %39 = getelementptr inbounds nuw i8, ptr %38, i64 8
  store ptr %39, ptr %18, align 8, !tbaa !145
  br label %_ZNSt6vectorIN4cvc58internal12NodeTemplateILb1EEESaIS3_EE9push_backERKS3_.exit

40:                                               ; preds = %17
  tail call void @_ZNSt6vectorIN4cvc58internal12NodeTemplateILb1EEESaIS3_EE17_M_realloc_insertIJRKS3_EEEvN9__gnu_cxx17__normal_iteratorIPS3_S5_EEDpOT_(ptr noundef nonnull align 8 dereferenceable(24) %2, ptr %19, ptr noundef nonnull align 8 dereferenceable(8) %1)
  br label %_ZNSt6vectorIN4cvc58internal12NodeTemplateILb1EEESaIS3_EE9push_backERKS3_.exit

_ZNSt6vectorIN4cvc58internal12NodeTemplateILb1EEESaIS3_EE9push_backERKS3_.exit: ; preds = %40, %_ZNSt16allocator_traitsISaIN4cvc58internal12NodeTemplateILb1EEEEE9constructIS3_JRKS3_EEEvRS4_PT_DpOT0_.exit.i, %_ZNK4cvc58internal12NodeTemplateILb1EE6isNullEv.exit
  ret void
}